Certificate:
    Data:
        Version: 1 (0x0)
        Serial Number: 1 (0x1)
        Signature Algorithm: md5WithRSAEncryption
        Issuer: C=TW, L=Taipei, O=Internet Orz night night Ltd, OU=TWAMPd, CN=orz99.com/emailAddress=twonesmall@gmail.com
        Validity
            Not Before: Dec 21 08:38:03 2009 GMT
            Not After : Dec 19 08:38:03 2019 GMT
        Subject: C=TW, O=Great World Wide Web, OU=IT, CN=localhost/emailAddress=root@localhost
        Subject Public Key Info:
            Public Key Algorithm: rsaEncryption
            RSA Public Key: (1024 bit)
                Modulus (1024 bit):
                    00:c4:4b:81:30:59:1e:d6:ff:fa:71:8a:ee:52:c6:
                    ae:cb:de:be:c1:43:b4:43:7d:4f:95:e6:f6:63:76:
                    92:70:5e:3d:d6:f5:ca:47:a7:49:e0:fa:ea:35:f4:
                    e7:a6:6e:de:1f:65:c4:80:b7:fc:2e:5d:82:2f:84:
                    82:32:38:3e:e0:43:54:52:16:c9:9f:14:a5:d2:2a:
                    10:7b:69:b4:ba:de:83:f7:ab:80:a1:67:00:8b:08:
                    40:08:0a:07:4d:66:ce:1b:62:37:25:64:1c:ef:b9:
                    2b:c0:b4:49:95:02:31:56:4f:63:d7:58:19:a4:68:
                    a3:ef:8e:62:bf:14:bc:0a:25
                Exponent: 65537 (0x10001)
    Signature Algorithm: md5WithRSAEncryption
        39:22:cf:ec:3c:93:9e:bd:63:86:06:df:ce:30:56:8a:64:2d:
        44:ad:1f:61:c6:64:bb:6f:35:b4:83:43:b1:12:46:8a:46:ad:
        14:61:23:9c:d6:90:b3:a6:a5:48:36:55:b2:b4:45:bc:7d:40:
        de:12:75:28:be:f2:07:16:c1:32:02:d2:70:02:10:a9:b7:76:
        44:b1:03:72:21:69:3f:78:e4:56:06:b9:8e:79:5c:e9:c0:04:
        0f:a1:37:f0:86:32:e7:82:0b:72:da:ee:2f:2e:6e:93:58:0c:
        95:77:7a:39:d3:5d:39:41:89:27:5a:c9:1d:03:74:72:89:03:
        ce:9e
-----BEGIN CERTIFICATE-----
MIICazCCAdQCAQEwDQYJKoZIhvcNAQEEBQAwgY8xCzAJBgNVBAYTAlRXMQ8wDQYD
VQQHEwZUYWlwZWkxJTAjBgNVBAoTHEludGVybmV0IE9yeiBuaWdodCBuaWdodCBM
dGQxDzANBgNVBAsTBlRXQU1QZDESMBAGA1UEAxMJb3J6OTkuY29tMSMwIQYJKoZI
hvcNAQkBFhR0d29uZXNtYWxsQGdtYWlsLmNvbTAeFw0wOTEyMjEwODM4MDNaFw0x
OTEyMTkwODM4MDNaMGwxCzAJBgNVBAYTAlRXMR0wGwYDVQQKExRHcmVhdCBXb3Js
ZCBXaWRlIFdlYjELMAkGA1UECxMCSVQxEjAQBgNVBAMTCWxvY2FsaG9zdDEdMBsG
CSqGSIb3DQEJARYOcm9vdEBsb2NhbGhvc3QwgZ8wDQYJKoZIhvcNAQEBBQADgY0A
MIGJAoGBAMRLgTBZHtb/+nGK7lLGrsvevsFDtEN9T5Xm9mN2knBePdb1ykenSeD6
6jX056Zu3h9lxIC3/C5dgi+EgjI4PuBDVFIWyZ8UpdIqEHtptLreg/ergKFnAIsI
QAgKB01mzhtiNyVkHO+5K8C0SZUCMVZPY9dYGaRoo++OYr8UvAolAgMBAAEwDQYJ
KoZIhvcNAQEEBQADgYEAOSLP7DyTnr1jhgbfzjBWimQtRK0fYcZku281tINDsRJG
ikatFGEjnNaQs6alSDZVsrRFvH1A3hJ1KL7yBxbBMgLScAIQqbd2RLEDciFpP3jk
Vga5jnlc6cAED6E38IYy54ILctruLy5uk1gMlXd6OdNdOUGJJ1rJHQN0cokDzp4=
-----END CERTIFICATE-----
